target datalayout = "e-m:e-p270:32:32-p271:32:32-p272:64:64-i64:64-i128:128-f80:128-n8:16:32:64-S128"
target triple = "x86_64-pc-linux-gnu"

%class.QString = type { %struct.QArrayDataPointer }
%struct.QArrayDataPointer = type { ptr, ptr, i64 }
%class.StatsTreeDialog = type { %class.TapParameterDialog, %struct._tree_cfg_pres, ptr, ptr }
%class.TapParameterDialog = type { %class.WiresharkDialog.base, ptr, %class.QMenu, %class.QList.1, i32, ptr }
%class.WiresharkDialog.base = type <{ %class.GeometryStateDialog, ptr, i8, [7 x i8], %class.QString, %class.QList, i32, i8 }>
%class.GeometryStateDialog = type { %class.QDialog, %class.QString, ptr }
%class.QDialog = type { %class.QWidget }
%class.QWidget = type { %class.QObject, %class.QPaintDevice.base, ptr }
%class.QObject = type { ptr, %class.QScopedPointer }
%class.QScopedPointer = type { ptr }
%class.QPaintDevice.base = type <{ ptr, i16 }>
%class.QList = type { %struct.QArrayDataPointer.0 }
%struct.QArrayDataPointer.0 = type { ptr, ptr, i64 }
%class.QMenu = type { %class.QWidget }
%class.QList.1 = type { %struct.QArrayDataPointer.4 }
%struct.QArrayDataPointer.4 = type { ptr, ptr, i64 }
%struct._tree_cfg_pres = type { ptr }
%class.QByteArray = type { %struct.QArrayDataPointer.17 }
%struct.QArrayDataPointer.17 = type { ptr, ptr, i64 }

; Function Attrs: mustprogress null_pointer_is_valid sspstrong uwtable
define void @_ZN15StatsTreeDialog15getTreeAsStringE15_st_format_type(ptr dead_on_unwind noalias writable sret(%class.QByteArray) align 8 %0, ptr noundef align 8 dereferenceable_or_null(256) %1, i32 noundef %2) unnamed_addr #0 align 2 {
  %4 = alloca ptr, align 8
  %5 = alloca ptr, align 8
  %6 = alloca i32, align 4
  %7 = alloca ptr, align 8
  store ptr %0, ptr %4, align 8
  store ptr %1, ptr %5, align 8
  store i32 %2, ptr %6, align 4
  %8 = load ptr, ptr %5, align 8
  call void @llvm.lifetime.start.p0(i64 8, ptr %7) #20
  %9 = getelementptr inbounds nuw %class.StatsTreeDialog, ptr %8, i32 0, i32 2
  %10 = load ptr, ptr %9, align 8
  %11 = load i32, ptr %6, align 4
  %12 = call noundef ptr @_ZN18TapParameterDialog15statsTreeWidgetEv(ptr noundef align 8 dereferenceable_or_null(232) %8)
  %13 = call noundef i32 @_ZNK11QTreeWidget10sortColumnEv(ptr noundef align 8 dereferenceable_or_null(40) %12)
  %14 = call noundef ptr @_ZN18TapParameterDialog15statsTreeWidgetEv(ptr noundef align 8 dereferenceable_or_null(232) %8)
  %15 = call noundef ptr @_ZNK9QTreeView6headerEv(ptr noundef align 8 dereferenceable_or_null(40) %14)
  %16 = call noundef i32 @_ZNK11QHeaderView18sortIndicatorOrderEv(ptr noundef align 8 dereferenceable_or_null(40) %15)
  %17 = icmp eq i32 %16, 1
  %18 = call ptr @stats_tree_format_as_str(ptr noundef %10, i32 noundef %11, i32 noundef %13, i1 noundef zeroext %17)
  store ptr %18, ptr %7, align 8
  %19 = load ptr, ptr %7, align 8
  call void @_Z26gstring_free_to_qbytearrayP8_GString(ptr dead_on_unwind writable sret(%class.QByteArray) align 8 %0, ptr noundef %19)
  call void @llvm.lifetime.end.p0(i64 8, ptr %7) #20
  ret void
}