; Function Attrs: mustprogress null_pointer_is_valid sspstrong uwtable
define void @_ZN15StatsTreeDialog15getTreeAsStringE15_st_format_type(ptr dead_on_unwind noalias writable sret(%class.QByteArray) align 8 %0, ptr noundef align 8 dereferenceable_or_null(256) %1, i32 noundef %2) unnamed_addr #0 align 2 {
  %4 = getelementptr inbounds nuw i8, ptr %1, i64 240
  %5 = load ptr, ptr %4, align 8
  %6 = tail call noundef ptr @_ZN18TapParameterDialog15statsTreeWidgetEv(ptr noundef align 8 dereferenceable_or_null(232) %1)
  %7 = tail call noundef i32 @_ZNK11QTreeWidget10sortColumnEv(ptr noundef align 8 dereferenceable_or_null(40) %6)
  %8 = tail call noundef ptr @_ZN18TapParameterDialog15statsTreeWidgetEv(ptr noundef align 8 dereferenceable_or_null(232) %1)
  %9 = tail call noundef ptr @_ZNK9QTreeView6headerEv(ptr noundef align 8 dereferenceable_or_null(40) %8)
  %10 = tail call noundef i32 @_ZNK11QHeaderView18sortIndicatorOrderEv(ptr noundef align 8 dereferenceable_or_null(40) %9)
  %11 = icmp eq i32 %10, 1
  %12 = tail call ptr @stats_tree_format_as_str(ptr noundef %5, i32 noundef %2, i32 noundef %7, i1 noundef zeroext %11)
  tail call void @_Z26gstring_free_to_qbytearrayP8_GString(ptr dead_on_unwind writable sret(%class.QByteArray) align 8 %0, ptr noundef %12)
  ret void
}